target datalayout = "e-m:e-p270:32:32-p271:32:32-p272:64:64-i64:64-i128:128-f80:128-n8:16:32:64-S128"
target triple = "x86_64-pc-linux-gnu"

%"class.cv::xfeatures2d::DAISY_Impl" = type { %"class.cv::xfeatures2d::DAISY", float, i32, i32, i32, i32, i32, i32, i32, i8, i8, i8, i8, %"class.cv::Mat", %"class.cv::Mat", %"class.cv::Rect_", %"class.std::vector.0", %"class.cv::Mat", %"class.cv::Mat", %"class.cv::Mat", %"class.cv::Mat", %"class.cv::Mat", [360 x double] }
%"class.cv::xfeatures2d::DAISY" = type { %"class.cv::Feature2D" }
%"class.cv::Feature2D" = type { %"class.cv::Algorithm" }
%"class.cv::Algorithm" = type { ptr }
%"class.cv::Rect_" = type { i32, i32, i32, i32 }
%"class.std::vector.0" = type { %"struct.std::_Vector_base.1" }
%"struct.std::_Vector_base.1" = type { %"struct.std::_Vector_base<cv::Mat, std::allocator<cv::Mat>>::_Vector_impl" }
%"struct.std::_Vector_base<cv::Mat, std::allocator<cv::Mat>>::_Vector_impl" = type { %"struct.std::_Vector_base<cv::Mat, std::allocator<cv::Mat>>::_Vector_impl_data" }
%"struct.std::_Vector_base<cv::Mat, std::allocator<cv::Mat>>::_Vector_impl_data" = type { ptr, ptr, ptr }
%"class.cv::Mat" = type { i32, i32, i32, i32, ptr, ptr, ptr, ptr, ptr, ptr, %"struct.cv::MatSize", %"struct.cv::MatStep" }
%"struct.cv::MatSize" = type { ptr }
%"struct.cv::MatStep" = type { ptr, [2 x i64] }

; Function Attrs: mustprogress uwtable
define hidden noundef zeroext i1 @_ZNK2cv11xfeatures2d10DAISY_Impl25GetUnnormalizedDescriptorEddiPfPd(ptr noundef nonnull align 8 dereferenceable(3640) %0, double noundef %1, double noundef %2, i32 noundef %3, ptr noundef %4, ptr noundef %5) unnamed_addr #4 align 2 {
  %7 = alloca ptr, align 8
  %8 = alloca double, align 8
  %9 = alloca double, align 8
  %10 = alloca i32, align 4
  %11 = alloca ptr, align 8
  %12 = alloca ptr, align 8
  store ptr %0, ptr %7, align 8, !tbaa !18
  store double %1, ptr %8, align 8, !tbaa !7
  store double %2, ptr %9, align 8, !tbaa !7
  store i32 %3, ptr %10, align 4, !tbaa !3
  store ptr %4, ptr %11, align 8, !tbaa !20
  store ptr %5, ptr %12, align 8, !tbaa !53
  %13 = load ptr, ptr %7, align 8
  %14 = load double, ptr %8, align 8, !tbaa !7
  %15 = load double, ptr %9, align 8, !tbaa !7
  %16 = load i32, ptr %10, align 4, !tbaa !3
  %17 = load ptr, ptr %11, align 8, !tbaa !20
  %18 = load ptr, ptr %12, align 8, !tbaa !53
  %19 = getelementptr inbounds nuw %"class.cv::xfeatures2d::DAISY_Impl", ptr %13, i32 0, i32 16
  %20 = getelementptr inbounds nuw %"class.cv::xfeatures2d::DAISY_Impl", ptr %13, i32 0, i32 20
  %21 = getelementptr inbounds nuw %"class.cv::xfeatures2d::DAISY_Impl", ptr %13, i32 0, i32 21
  %22 = getelementptr inbounds nuw %"class.cv::xfeatures2d::DAISY_Impl", ptr %13, i32 0, i32 22
  %23 = getelementptr inbounds [360 x double], ptr %22, i64 0, i64 0
  %24 = getelementptr inbounds nuw %"class.cv::xfeatures2d::DAISY_Impl", ptr %13, i32 0, i32 3
  %25 = load i32, ptr %24, align 8, !tbaa !22
  %26 = getelementptr inbounds nuw %"class.cv::xfeatures2d::DAISY_Impl", ptr %13, i32 0, i32 11
  %27 = load i8, ptr %26, align 2, !tbaa !46, !range !47, !noundef !48
  %28 = trunc i8 %27 to i1
  %29 = call noundef zeroext i1 @_ZN2cv11xfeatures2dL29get_unnormalized_descriptor_hEddiPfPdPKSt6vectorINS_3MatESaIS4_EERKS4_PS9_PKdib(double noundef %14, double noundef %15, i32 noundef %16, ptr noundef %17, ptr noundef %18, ptr noundef %19, ptr noundef nonnull align 8 dereferenceable(96) %20, ptr noundef %21, ptr noundef %23, i32 noundef %25, i1 noundef zeroext %28)
  ret i1 %29
}