; Function Attrs: mustprogress uwtable
define hidden noundef zeroext i1 @_ZNK2cv11xfeatures2d10DAISY_Impl25GetUnnormalizedDescriptorEddiPfPd(ptr noundef nonnull align 8 dereferenceable(3640) %0, double noundef %1, double noundef %2, i32 noundef %3, ptr noundef %4, ptr noundef readonly captures(none) %5) unnamed_addr #1 align 2 {
  %7 = getelementptr inbounds nuw i8, ptr %0, i64 256
  %8 = getelementptr inbounds nuw i8, ptr %0, i64 568
  %9 = getelementptr inbounds nuw i8, ptr %0, i64 664
  %10 = getelementptr inbounds nuw i8, ptr %0, i64 760
  %11 = getelementptr inbounds nuw i8, ptr %0, i64 16
  %12 = load i32, ptr %11, align 8, !tbaa !3
  %13 = getelementptr inbounds nuw i8, ptr %0, i64 42
  %14 = load i8, ptr %13, align 2, !tbaa !31, !range !32, !noundef !33
  %15 = trunc nuw i8 %14 to i1
  %16 = tail call fastcc noundef zeroext i1 @_ZN2cv11xfeatures2dL29get_unnormalized_descriptor_hEddiPfPdPKSt6vectorINS_3MatESaIS4_EERKS4_PS9_PKdib(double noundef %1, double noundef %2, i32 noundef %3, ptr noundef %4, ptr noundef %5, ptr noundef %7, ptr noundef nonnull align 8 dereferenceable(96) %8, ptr noundef %9, ptr noundef %10, i32 noundef %12, i1 noundef zeroext %15)
  ret i1 %16
}